; Function Attrs: mustprogress uwtable
define noundef zeroext i1 @_ZNK32pxrInternal_v0_24__pxrReserved__17UsdUsdcFileFormat14_ReadFromAssetEPNS_8SdfLayerERKNSt7__cxx1112basic_stringIcSt11char_traitsIcESaIcEEERKSt10shared_ptrINS_7ArAssetEEbb(ptr noundef nonnull align 8 dereferenceable(113) %0, ptr noundef %1, ptr noundef nonnull align 8 dereferenceable(32) %2, ptr noundef nonnull align 1 %3, i1 noundef zeroext %4, i1 noundef zeroext %5) local_unnamed_addr #1 align 2 personality ptr @__gxx_personality_v0 {
  %7 = alloca %"class.pxrInternal_v0_24__pxrReserved__::TraceKey", align 8
  %8 = alloca %"class.pxrInternal_v0_24__pxrReserved__::TraceKey", align 8
  %9 = alloca i8, align 1
  %10 = zext i1 %5 to i8
  store i8 %10, ptr %9, align 1
  %11 = load atomic i32, ptr @_ZN32pxrInternal_v0_24__pxrReserved__14TraceCollector10_isEnabledE acquire, align 4
  %12 = icmp eq i32 %11, 1
  br i1 %12, label %13, label %_ZN32pxrInternal_v0_24__pxrReserved__14TraceScopeAutoC2ERKNS_18TraceStaticKeyDataE.exit

13:                                               ; preds = %6
  fence syncscope("singlethread") seq_cst
  %14 = tail call { i32, i32 } asm sideeffect "lfence\0A\09rdtsc\0A\09lfence", "={ax},={dx},~{dirflag},~{fpsr},~{flags}"() #18, !srcloc !6
  %15 = extractvalue { i32, i32 } %14, 0
  %16 = extractvalue { i32, i32 } %14, 1
  %17 = zext i32 %16 to i64
  %18 = shl nuw i64 %17, 32
  %19 = zext i32 %15 to i64
  br label %_ZN32pxrInternal_v0_24__pxrReserved__14TraceScopeAutoC2ERKNS_18TraceStaticKeyDataE.exit

_ZN32pxrInternal_v0_24__pxrReserved__14TraceScopeAutoC2ERKNS_18TraceStaticKeyDataE.exit: ; preds = %6, %13
  %.sroa.7.0 = phi i64 [ %19, %13 ], [ 0, %6 ]
  %.sroa.11.0 = phi i64 [ %18, %13 ], [ 0, %6 ]
  %20 = invoke noundef zeroext i1 @_ZNK32pxrInternal_v0_24__pxrReserved__17UsdUsdcFileFormat11_ReadHelperIJRKSt10shared_ptrINS_7ArAssetEERbEEEbPNS_8SdfLayerERKNSt7__cxx1112basic_stringIcSt11char_traitsIcESaIcEEEbDpOT_(ptr noundef nonnull align 8 dereferenceable(113) %0, ptr noundef %1, ptr noundef nonnull align 8 dereferenceable(32) %2, i1 noundef zeroext %4, ptr noundef nonnull align 1 %3, ptr noundef nonnull align 1 dereferenceable(1) %9)
          to label %21 unwind label %24

21:                                               ; preds = %_ZN32pxrInternal_v0_24__pxrReserved__14TraceScopeAutoC2ERKNS_18TraceStaticKeyDataE.exit
  call void @llvm.lifetime.start.p0(i64 8, ptr nonnull %8)
  br i1 %12, label %22, label %_ZN32pxrInternal_v0_24__pxrReserved__14TraceScopeAutoD2Ev.exit

22:                                               ; preds = %21
  fence syncscope("singlethread") seq_cst
  %23 = call noundef i64 asm sideeffect "rdtscp\0A\09shl $$32, %rdx\0A\09or %rdx, $0\0A\09lfence", "={ax},~{rcx},~{rdx},~{cc},~{dirflag},~{fpsr},~{flags}"() #18, !srcloc !7
  store ptr @_ZZNK32pxrInternal_v0_24__pxrReserved__17UsdUsdcFileFormat14_ReadFromAssetEPNS_8SdfLayerERKNSt7__cxx1112basic_stringIcSt11char_traitsIcESaIcEEERKSt10shared_ptrINS_7ArAssetEEbbE16TraceKeyData_114, ptr %8, align 8
  %.sroa.7.12.insert.insert = or disjoint i64 %.sroa.11.0, %.sroa.7.0
  call void @_ZN32pxrInternal_v0_24__pxrReserved__14TraceCollector5ScopeERKNS_8TraceKeyEmm(ptr noundef nonnull align 8 dereferenceable(8) %8, i64 noundef %.sroa.7.12.insert.insert, i64 noundef %23) #18
  br label %_ZN32pxrInternal_v0_24__pxrReserved__14TraceScopeAutoD2Ev.exit

_ZN32pxrInternal_v0_24__pxrReserved__14TraceScopeAutoD2Ev.exit: ; preds = %21, %22
  call void @llvm.lifetime.end.p0(i64 8, ptr nonnull %8)
  ret i1 %20

24:                                               ; preds = %_ZN32pxrInternal_v0_24__pxrReserved__14TraceScopeAutoC2ERKNS_18TraceStaticKeyDataE.exit
  %25 = landingpad { ptr, i32 }
          cleanup
  call void @llvm.lifetime.start.p0(i64 8, ptr nonnull %7)
  br i1 %12, label %26, label %_ZN32pxrInternal_v0_24__pxrReserved__14TraceScopeAutoD2Ev.exit6

26:                                               ; preds = %24
  fence syncscope("singlethread") seq_cst
  %27 = call noundef i64 asm sideeffect "rdtscp\0A\09shl $$32, %rdx\0A\09or %rdx, $0\0A\09lfence", "={ax},~{rcx},~{rdx},~{cc},~{dirflag},~{fpsr},~{flags}"() #18, !srcloc !7
  store ptr @_ZZNK32pxrInternal_v0_24__pxrReserved__17UsdUsdcFileFormat14_ReadFromAssetEPNS_8SdfLayerERKNSt7__cxx1112basic_stringIcSt11char_traitsIcESaIcEEERKSt10shared_ptrINS_7ArAssetEEbbE16TraceKeyData_114, ptr %7, align 8
  %.sroa.7.12.insert.insert12 = or disjoint i64 %.sroa.11.0, %.sroa.7.0
  call void @_ZN32pxrInternal_v0_24__pxrReserved__14TraceCollector5ScopeERKNS_8TraceKeyEmm(ptr noundef nonnull align 8 dereferenceable(8) %7, i64 noundef %.sroa.7.12.insert.insert12, i64 noundef %27) #18
  br label %_ZN32pxrInternal_v0_24__pxrReserved__14TraceScopeAutoD2Ev.exit6

_ZN32pxrInternal_v0_24__pxrReserved__14TraceScopeAutoD2Ev.exit6: ; preds = %24, %26
  call void @llvm.lifetime.end.p0(i64 8, ptr nonnull %7)
  resume { ptr, i32 } %25
}